target datalayout = "e-m:e-p270:32:32-p271:32:32-p272:64:64-i64:64-i128:128-f80:128-n8:16:32:64-S128"
target triple = "x86_64-unknown-linux-gnu"

%struct.Packet = type { ptr, %union.anon.2, ptr, i32, i64, i32, i32, i32, i32, i8, i16, i16, i8 }
%union.anon.2 = type { ptr }
%struct.in_addr = type { i32 }
%struct.ip = type { i8, i8, i16, i16, i16, i8, i8, i16, %struct.in_addr, %struct.in_addr }
%struct.tcp_hdr = type { i16, i16, i32, i32, i8, i8, i16, i16, i16 }

@max_queue_size = internal global i32 0, align 4

; Function Attrs: nounwind sspstrong uwtable
define internal void @fill_pkt_tcp_info(ptr noundef %data, ptr noundef %max_ack) #0 {
entry:
  %data.addr = alloca ptr, align 8
  %max_ack.addr = alloca ptr, align 8
  %pkt = alloca ptr, align 8
  %tcphd = alloca ptr, align 8
  store ptr %data, ptr %data.addr, align 8
  store ptr %max_ack, ptr %max_ack.addr, align 8
  %0 = load ptr, ptr %data.addr, align 8
  store ptr %0, ptr %pkt, align 8
  %1 = load ptr, ptr %pkt, align 8
  %transport_header = getelementptr inbounds %struct.Packet, ptr %1, i32 0, i32 2
  %2 = load ptr, ptr %transport_header, align 8
  store ptr %2, ptr %tcphd, align 8
  %3 = load ptr, ptr %tcphd, align 8
  %th_seq = getelementptr inbounds %struct.tcp_hdr, ptr %3, i32 0, i32 2
  %4 = load i32, ptr %th_seq, align 4
  %call = call i32 @ntohl(i32 noundef %4) #13
  %5 = load ptr, ptr %pkt, align 8
  %tcp_seq = getelementptr inbounds %struct.Packet, ptr %5, i32 0, i32 6
  store i32 %call, ptr %tcp_seq, align 4
  %6 = load ptr, ptr %tcphd, align 8
  %th_ack = getelementptr inbounds %struct.tcp_hdr, ptr %6, i32 0, i32 3
  %7 = load i32, ptr %th_ack, align 4
  %call1 = call i32 @ntohl(i32 noundef %7) #13
  %8 = load ptr, ptr %pkt, align 8
  %tcp_ack = getelementptr inbounds %struct.Packet, ptr %8, i32 0, i32 7
  store i32 %call1, ptr %tcp_ack, align 8
  %9 = load ptr, ptr %pkt, align 8
  %tcp_ack2 = getelementptr inbounds %struct.Packet, ptr %9, i32 0, i32 7
  %10 = load i32, ptr %tcp_ack2, align 8
  %11 = load ptr, ptr %max_ack.addr, align 8
  %12 = load i32, ptr %11, align 4
  %sub = sub i32 %10, %12
  %cmp = icmp ugt i32 %sub, 0
  br i1 %cmp, label %cond.true, label %cond.false

cond.true:                                        ; preds = %entry
  %13 = load ptr, ptr %pkt, align 8
  %tcp_ack3 = getelementptr inbounds %struct.Packet, ptr %13, i32 0, i32 7
  %14 = load i32, ptr %tcp_ack3, align 8
  br label %cond.end

cond.false:                                       ; preds = %entry
  %15 = load ptr, ptr %max_ack.addr, align 8
  %16 = load i32, ptr %15, align 4
  br label %cond.end

cond.end:                                         ; preds = %cond.false, %cond.true
  %cond = phi i32 [ %14, %cond.true ], [ %16, %cond.false ]
  %17 = load ptr, ptr %max_ack.addr, align 8
  store i32 %cond, ptr %17, align 4
  %18 = load ptr, ptr %pkt, align 8
  %transport_header4 = getelementptr inbounds %struct.Packet, ptr %18, i32 0, i32 2
  %19 = load ptr, ptr %transport_header4, align 8
  %20 = load ptr, ptr %pkt, align 8
  %data5 = getelementptr inbounds %struct.Packet, ptr %20, i32 0, i32 0
  %21 = load ptr, ptr %data5, align 8
  %sub.ptr.lhs.cast = ptrtoint ptr %19 to i64
  %sub.ptr.rhs.cast = ptrtoint ptr %21 to i64
  %sub.ptr.sub = sub i64 %sub.ptr.lhs.cast, %sub.ptr.rhs.cast
  %22 = load ptr, ptr %tcphd, align 8
  %th_off = getelementptr inbounds %struct.tcp_hdr, ptr %22, i32 0, i32 4
  %bf.load = load i8, ptr %th_off, align 4
  %bf.lshr = lshr i8 %bf.load, 4
  %conv = zext i8 %bf.lshr to i32
  %shl = shl i32 %conv, 2
  %conv6 = sext i32 %shl to i64
  %add = add i64 %sub.ptr.sub, %conv6
  %conv7 = trunc i64 %add to i8
  %23 = load ptr, ptr %pkt, align 8
  %header_size = getelementptr inbounds %struct.Packet, ptr %23, i32 0, i32 9
  store i8 %conv7, ptr %header_size, align 8
  %24 = load ptr, ptr %pkt, align 8
  %size = getelementptr inbounds %struct.Packet, ptr %24, i32 0, i32 3
  %25 = load i32, ptr %size, align 8
  %26 = load ptr, ptr %pkt, align 8
  %header_size8 = getelementptr inbounds %struct.Packet, ptr %26, i32 0, i32 9
  %27 = load i8, ptr %header_size8, align 8
  %conv9 = zext i8 %27 to i32
  %sub10 = sub i32 %25, %conv9
  %conv11 = trunc i32 %sub10 to i16
  %28 = load ptr, ptr %pkt, align 8
  %payload_size = getelementptr inbounds %struct.Packet, ptr %28, i32 0, i32 10
  store i16 %conv11, ptr %payload_size, align 2
  %29 = load ptr, ptr %pkt, align 8
  %tcp_seq12 = getelementptr inbounds %struct.Packet, ptr %29, i32 0, i32 6
  %30 = load i32, ptr %tcp_seq12, align 4
  %31 = load ptr, ptr %pkt, align 8
  %payload_size13 = getelementptr inbounds %struct.Packet, ptr %31, i32 0, i32 10
  %32 = load i16, ptr %payload_size13, align 2
  %conv14 = zext i16 %32 to i32
  %add15 = add i32 %30, %conv14
  %33 = load ptr, ptr %pkt, align 8
  %seq_end = getelementptr inbounds %struct.Packet, ptr %33, i32 0, i32 8
  store i32 %add15, ptr %seq_end, align 4
  %34 = load ptr, ptr %tcphd, align 8
  %th_flags = getelementptr inbounds %struct.tcp_hdr, ptr %34, i32 0, i32 5
  %35 = load i8, ptr %th_flags, align 1
  %36 = load ptr, ptr %pkt, align 8
  %flags = getelementptr inbounds %struct.Packet, ptr %36, i32 0, i32 12
  store i8 %35, ptr %flags, align 2
  ret void
}

; Function Attrs: nounwind sspstrong uwtable
define internal i32 @colo_insert_packet(ptr noundef %queue, ptr noundef %pkt, ptr noundef %max_ack) #0 {
entry:
  %retval = alloca i32, align 4
  %queue.addr = alloca ptr, align 8
  %pkt.addr = alloca ptr, align 8
  %max_ack.addr = alloca ptr, align 8
  store ptr %queue, ptr %queue.addr, align 8
  store ptr %pkt, ptr %pkt.addr, align 8
  store ptr %max_ack, ptr %max_ack.addr, align 8
  %0 = load ptr, ptr %queue.addr, align 8
  %call = call i32 @g_queue_get_length(ptr noundef %0)
  %1 = load i32, ptr @max_queue_size, align 4
  %cmp = icmp ule i32 %call, %1
  br i1 %cmp, label %if.then, label %if.end4

if.then:                                          ; preds = %entry
  %2 = load ptr, ptr %pkt.addr, align 8
  %3 = getelementptr inbounds %struct.Packet, ptr %2, i32 0, i32 1
  %4 = load ptr, ptr %3, align 8
  %ip_p = getelementptr inbounds %struct.ip, ptr %4, i32 0, i32 6
  %5 = load i8, ptr %ip_p, align 1
  %conv = zext i8 %5 to i32
  %cmp1 = icmp eq i32 %conv, 6
  br i1 %cmp1, label %if.then3, label %if.else

if.then3:                                         ; preds = %if.then
  %6 = load ptr, ptr %pkt.addr, align 8
  %7 = load ptr, ptr %max_ack.addr, align 8
  call void @fill_pkt_tcp_info(ptr noundef %6, ptr noundef %7)
  %8 = load ptr, ptr %queue.addr, align 8
  %9 = load ptr, ptr %pkt.addr, align 8
  call void @g_queue_insert_sorted(ptr noundef %8, ptr noundef %9, ptr noundef @seq_sorter, ptr noundef null)
  br label %if.end

if.else:                                          ; preds = %if.then
  %10 = load ptr, ptr %queue.addr, align 8
  %11 = load ptr, ptr %pkt.addr, align 8
  call void @g_queue_push_tail(ptr noundef %10, ptr noundef %11)
  br label %if.end

if.end:                                           ; preds = %if.else, %if.then3
  store i32 1, ptr %retval, align 4
  br label %return

if.end4:                                          ; preds = %entry
  store i32 0, ptr %retval, align 4
  br label %return

return:                                           ; preds = %if.end4, %if.end
  %12 = load i32, ptr %retval, align 4
  ret i32 %12
}