; Function Attrs: nounwind sspstrong uwtable
define internal fastcc range(i32 0, 2) i32 @colo_insert_packet(ptr noundef %queue, ptr noundef %pkt, ptr noundef writeonly captures(none) %max_ack) unnamed_addr #0 {
entry:
  %call = tail call i32 @g_queue_get_length(ptr noundef %queue) #16
  %0 = load i32, ptr @max_queue_size, align 4
  %cmp.not = icmp ugt i32 %call, %0
  br i1 %cmp.not, label %return, label %if.then

if.then:                                          ; preds = %entry
  %1 = getelementptr inbounds nuw i8, ptr %pkt, i64 8
  %2 = load ptr, ptr %1, align 8
  %ip_p = getelementptr inbounds nuw i8, ptr %2, i64 9
  %3 = load i8, ptr %ip_p, align 1
  %cmp1 = icmp eq i8 %3, 6
  br i1 %cmp1, label %if.then3, label %if.else

if.then3:                                         ; preds = %if.then
  %transport_header.i = getelementptr inbounds nuw i8, ptr %pkt, i64 16
  %4 = load ptr, ptr %transport_header.i, align 8
  %th_seq.i = getelementptr inbounds nuw i8, ptr %4, i64 4
  %5 = load i32, ptr %th_seq.i, align 4
  %call.i = tail call i32 @ntohl(i32 noundef %5) #19
  %tcp_seq.i = getelementptr inbounds nuw i8, ptr %pkt, i64 44
  store i32 %call.i, ptr %tcp_seq.i, align 4
  %th_ack.i = getelementptr inbounds nuw i8, ptr %4, i64 8
  %6 = load i32, ptr %th_ack.i, align 4
  %call1.i = tail call i32 @ntohl(i32 noundef %6) #19
  %tcp_ack.i = getelementptr inbounds nuw i8, ptr %pkt, i64 48
  store i32 %call1.i, ptr %tcp_ack.i, align 8
  store i32 %call1.i, ptr %max_ack, align 4
  %7 = load ptr, ptr %transport_header.i, align 8
  %8 = load ptr, ptr %pkt, align 8
  %sub.ptr.lhs.cast.i = ptrtoint ptr %7 to i64
  %sub.ptr.rhs.cast.i = ptrtoint ptr %8 to i64
  %sub.ptr.sub.i = sub i64 %sub.ptr.lhs.cast.i, %sub.ptr.rhs.cast.i
  %th_off.i = getelementptr inbounds nuw i8, ptr %4, i64 12
  %bf.load.i = load i8, ptr %th_off.i, align 4
  %9 = lshr i8 %bf.load.i, 2
  %10 = and i8 %9, 60
  %11 = trunc i64 %sub.ptr.sub.i to i8
  %conv7.i = add i8 %10, %11
  %header_size.i = getelementptr inbounds nuw i8, ptr %pkt, i64 56
  store i8 %conv7.i, ptr %header_size.i, align 8
  %size.i = getelementptr inbounds nuw i8, ptr %pkt, i64 24
  %12 = load i32, ptr %size.i, align 8
  %conv9.i = zext i8 %conv7.i to i32
  %sub10.i = sub i32 %12, %conv9.i
  %conv11.i = trunc i32 %sub10.i to i16
  %payload_size.i = getelementptr inbounds nuw i8, ptr %pkt, i64 58
  store i16 %conv11.i, ptr %payload_size.i, align 2
  %13 = load i32, ptr %tcp_seq.i, align 4
  %conv14.i = and i32 %sub10.i, 65535
  %add15.i = add i32 %conv14.i, %13
  %seq_end.i = getelementptr inbounds nuw i8, ptr %pkt, i64 52
  store i32 %add15.i, ptr %seq_end.i, align 4
  %th_flags.i = getelementptr inbounds nuw i8, ptr %4, i64 13
  %14 = load i8, ptr %th_flags.i, align 1
  %flags.i = getelementptr inbounds nuw i8, ptr %pkt, i64 62
  store i8 %14, ptr %flags.i, align 2
  tail call void @g_queue_insert_sorted(ptr noundef %queue, ptr noundef nonnull %pkt, ptr noundef nonnull @seq_sorter, ptr noundef null) #16
  br label %return

if.else:                                          ; preds = %if.then
  tail call void @g_queue_push_tail(ptr noundef %queue, ptr noundef nonnull %pkt) #16
  br label %return

return:                                           ; preds = %entry, %if.then3, %if.else
  %retval.0 = phi i32 [ 1, %if.else ], [ 1, %if.then3 ], [ 0, %entry ]
  ret i32 %retval.0
}